target datalayout = "e-m:e-p270:32:32-p271:32:32-p272:64:64-i64:64-i128:128-f80:128-n8:16:32:64-S128"
target triple = "x86_64-pc-linux-gnu"

%struct._generic_N_Vector = type { ptr, ptr, ptr }
%struct._generic_N_Vector_Ops = type { ptr, ptr, ptr, ptr, ptr, ptr, ptr, ptr, ptr, ptr, ptr, ptr, ptr, ptr, ptr, ptr, ptr, ptr, ptr, ptr, ptr, ptr, ptr, ptr, ptr, ptr, ptr, ptr, ptr, ptr, ptr, ptr, ptr, ptr, ptr, ptr, ptr, ptr, ptr, ptr, ptr, ptr, ptr, ptr, ptr, ptr, ptr, ptr, ptr, ptr, ptr, ptr, ptr, ptr, ptr, ptr }

; Function Attrs: nounwind uwtable
define i32 @N_VEnableWrmsNormMaskVectorArray_Serial(ptr noundef %0, i32 noundef %1) #0 {
  %3 = alloca ptr, align 8
  %4 = alloca i32, align 4
  store ptr %0, ptr %3, align 8, !tbaa !10
  store i32 %1, ptr %4, align 4, !tbaa !74
  %5 = load i32, ptr %4, align 4, !tbaa !74
  %6 = icmp ne i32 %5, 0
  %7 = select i1 %6, ptr @N_VWrmsNormMaskVectorArray_Serial, ptr null
  %8 = load ptr, ptr %3, align 8, !tbaa !10
  %9 = getelementptr inbounds nuw %struct._generic_N_Vector, ptr %8, i32 0, i32 1
  %10 = load ptr, ptr %9, align 8, !tbaa !12
  %11 = getelementptr inbounds nuw %struct._generic_N_Vector_Ops, ptr %10, i32 0, i32 37
  store ptr %7, ptr %11, align 8, !tbaa !89
  ret i32 0
}